target datalayout = "e-m:e-p270:32:32-p271:32:32-p272:64:64-i64:64-i128:128-f80:128-n8:16:32:64-S128"
target triple = "x86_64-pc-linux-gnu"

%struct.ImGuiStorage = type { %struct.ImVector.4 }
%struct.ImVector.4 = type { i32, i32, ptr }
%struct.ImGuiStoragePair = type { i32, %union.anon.35 }
%union.anon.35 = type { ptr }

; Function Attrs: mustprogress nounwind uwtable
define linkonce_odr void @_ZN16ImGuiStoragePairC2EjPv(ptr noundef nonnull align 8 dereferenceable(16) %0, i32 noundef %1, ptr noundef %2) unnamed_addr #1 comdat align 2 {
  %4 = alloca ptr, align 8
  %5 = alloca i32, align 4
  %6 = alloca ptr, align 8
  store ptr %0, ptr %4, align 8, !tbaa !330
  store i32 %1, ptr %5, align 4, !tbaa !125
  store ptr %2, ptr %6, align 8, !tbaa !300
  %7 = load ptr, ptr %4, align 8
  %8 = load i32, ptr %5, align 4, !tbaa !125
  %9 = getelementptr inbounds nuw %struct.ImGuiStoragePair, ptr %7, i32 0, i32 0
  store i32 %8, ptr %9, align 8, !tbaa !331
  %10 = load ptr, ptr %6, align 8, !tbaa !300
  %11 = getelementptr inbounds nuw %struct.ImGuiStoragePair, ptr %7, i32 0, i32 1
  store ptr %10, ptr %11, align 8, !tbaa !252
  ret void
}

; Function Attrs: mustprogress nounwind uwtable
define noundef ptr @_Z12ImLowerBoundP16ImGuiStoragePairS0_j(ptr noundef %0, ptr noundef %1, i32 noundef %2) #1 {
  %4 = alloca ptr, align 8
  %5 = alloca ptr, align 8
  %6 = alloca i32, align 4
  %7 = alloca ptr, align 8
  %8 = alloca i64, align 8
  %9 = alloca i64, align 8
  %10 = alloca ptr, align 8
  store ptr %0, ptr %4, align 8, !tbaa !330
  store ptr %1, ptr %5, align 8, !tbaa !330
  store i32 %2, ptr %6, align 4, !tbaa !125
  call void @llvm.lifetime.start.p0(i64 8, ptr %7) #16
  %11 = load ptr, ptr %4, align 8, !tbaa !330
  store ptr %11, ptr %7, align 8, !tbaa !330
  call void @llvm.lifetime.start.p0(i64 8, ptr %8) #16
  %12 = load ptr, ptr %5, align 8, !tbaa !330
  %13 = load ptr, ptr %7, align 8, !tbaa !330
  %14 = ptrtoint ptr %12 to i64
  %15 = ptrtoint ptr %13 to i64
  %16 = sub i64 %14, %15
  %17 = sdiv exact i64 %16, 16
  store i64 %17, ptr %8, align 8, !tbaa !297
  br label %18

18:                                               ; preds = %42, %3
  %19 = load i64, ptr %8, align 8, !tbaa !297
  %20 = icmp ugt i64 %19, 0
  br i1 %20, label %22, label %21

21:                                               ; preds = %18
  call void @llvm.lifetime.end.p0(i64 8, ptr %8) #16
  br label %43

22:                                               ; preds = %18
  call void @llvm.lifetime.start.p0(i64 8, ptr %9) #16
  %23 = load i64, ptr %8, align 8, !tbaa !297
  %24 = lshr i64 %23, 1
  store i64 %24, ptr %9, align 8, !tbaa !297
  call void @llvm.lifetime.start.p0(i64 8, ptr %10) #16
  %25 = load ptr, ptr %7, align 8, !tbaa !330
  %26 = load i64, ptr %9, align 8, !tbaa !297
  %27 = getelementptr inbounds nuw %struct.ImGuiStoragePair, ptr %25, i64 %26
  store ptr %27, ptr %10, align 8, !tbaa !330
  %28 = load ptr, ptr %10, align 8, !tbaa !330
  %29 = getelementptr inbounds nuw %struct.ImGuiStoragePair, ptr %28, i32 0, i32 0
  %30 = load i32, ptr %29, align 8, !tbaa !331
  %31 = load i32, ptr %6, align 4, !tbaa !125
  %32 = icmp ult i32 %30, %31
  br i1 %32, label %33, label %40

33:                                               ; preds = %22
  %34 = load ptr, ptr %10, align 8, !tbaa !330
  %35 = getelementptr inbounds nuw %struct.ImGuiStoragePair, ptr %34, i32 1
  store ptr %35, ptr %10, align 8, !tbaa !330
  store ptr %35, ptr %7, align 8, !tbaa !330
  %36 = load i64, ptr %9, align 8, !tbaa !297
  %37 = add i64 %36, 1
  %38 = load i64, ptr %8, align 8, !tbaa !297
  %39 = sub i64 %38, %37
  store i64 %39, ptr %8, align 8, !tbaa !297
  br label %42

40:                                               ; preds = %22
  %41 = load i64, ptr %9, align 8, !tbaa !297
  store i64 %41, ptr %8, align 8, !tbaa !297
  br label %42

42:                                               ; preds = %40, %33
  call void @llvm.lifetime.end.p0(i64 8, ptr %10) #16
  call void @llvm.lifetime.end.p0(i64 8, ptr %9) #16
  br label %18, !llvm.loop !333

43:                                               ; preds = %21
  %44 = load ptr, ptr %7, align 8, !tbaa !330
  call void @llvm.lifetime.end.p0(i64 8, ptr %7) #16
  ret ptr %44
}

; Function Attrs: mustprogress uwtable
define void @_ZN12ImGuiStorage10SetVoidPtrEjPv(ptr noundef nonnull align 8 dereferenceable(16) %0, i32 noundef %1, ptr noundef %2) #0 align 2 {
  %4 = alloca ptr, align 8
  %5 = alloca i32, align 4
  %6 = alloca ptr, align 8
  %7 = alloca ptr, align 8
  %8 = alloca %struct.ImGuiStoragePair, align 8
  store ptr %0, ptr %4, align 8, !tbaa !334
  store i32 %1, ptr %5, align 4, !tbaa !125
  store ptr %2, ptr %6, align 8, !tbaa !300
  %9 = load ptr, ptr %4, align 8
  call void @llvm.lifetime.start.p0(i64 8, ptr %7) #16
  %10 = getelementptr inbounds nuw %struct.ImGuiStorage, ptr %9, i32 0, i32 0
  %11 = getelementptr inbounds nuw %struct.ImVector.4, ptr %10, i32 0, i32 2
  %12 = load ptr, ptr %11, align 8, !tbaa !336
  %13 = getelementptr inbounds nuw %struct.ImGuiStorage, ptr %9, i32 0, i32 0
  %14 = getelementptr inbounds nuw %struct.ImVector.4, ptr %13, i32 0, i32 2
  %15 = load ptr, ptr %14, align 8, !tbaa !336
  %16 = getelementptr inbounds nuw %struct.ImGuiStorage, ptr %9, i32 0, i32 0
  %17 = getelementptr inbounds nuw %struct.ImVector.4, ptr %16, i32 0, i32 0
  %18 = load i32, ptr %17, align 8, !tbaa !337
  %19 = sext i32 %18 to i64
  %20 = getelementptr inbounds %struct.ImGuiStoragePair, ptr %15, i64 %19
  %21 = load i32, ptr %5, align 4, !tbaa !125
  %22 = call noundef ptr @_Z12ImLowerBoundP16ImGuiStoragePairS0_j(ptr noundef %12, ptr noundef %20, i32 noundef %21)
  store ptr %22, ptr %7, align 8, !tbaa !330
  %23 = load ptr, ptr %7, align 8, !tbaa !330
  %24 = getelementptr inbounds nuw %struct.ImGuiStorage, ptr %9, i32 0, i32 0
  %25 = getelementptr inbounds nuw %struct.ImVector.4, ptr %24, i32 0, i32 2
  %26 = load ptr, ptr %25, align 8, !tbaa !336
  %27 = getelementptr inbounds nuw %struct.ImGuiStorage, ptr %9, i32 0, i32 0
  %28 = getelementptr inbounds nuw %struct.ImVector.4, ptr %27, i32 0, i32 0
  %29 = load i32, ptr %28, align 8, !tbaa !337
  %30 = sext i32 %29 to i64
  %31 = getelementptr inbounds %struct.ImGuiStoragePair, ptr %26, i64 %30
  %32 = icmp eq ptr %23, %31
  br i1 %32, label %39, label %33

33:                                               ; preds = %3
  %34 = load ptr, ptr %7, align 8, !tbaa !330
  %35 = getelementptr inbounds nuw %struct.ImGuiStoragePair, ptr %34, i32 0, i32 0
  %36 = load i32, ptr %35, align 8, !tbaa !331
  %37 = load i32, ptr %5, align 4, !tbaa !125
  %38 = icmp ne i32 %36, %37
  br i1 %38, label %39, label %45

39:                                               ; preds = %33, %3
  %40 = getelementptr inbounds nuw %struct.ImGuiStorage, ptr %9, i32 0, i32 0
  %41 = load ptr, ptr %7, align 8, !tbaa !330
  call void @llvm.lifetime.start.p0(i64 16, ptr %8) #16
  %42 = load i32, ptr %5, align 4, !tbaa !125
  %43 = load ptr, ptr %6, align 8, !tbaa !300
  call void @_ZN16ImGuiStoragePairC2EjPv(ptr noundef nonnull align 8 dereferenceable(16) %8, i32 noundef %42, ptr noundef %43)
  %44 = call noundef ptr @_ZN8ImVectorI16ImGuiStoragePairE6insertEPKS0_RS2_(ptr noundef nonnull align 8 dereferenceable(16) %40, ptr noundef %41, ptr noundef nonnull align 8 dereferenceable(16) %8)
  call void @llvm.lifetime.end.p0(i64 16, ptr %8) #16
  br label %49

45:                                               ; preds = %33
  %46 = load ptr, ptr %6, align 8, !tbaa !300
  %47 = load ptr, ptr %7, align 8, !tbaa !330
  %48 = getelementptr inbounds nuw %struct.ImGuiStoragePair, ptr %47, i32 0, i32 1
  store ptr %46, ptr %48, align 8, !tbaa !252
  br label %49

49:                                               ; preds = %45, %39
  call void @llvm.lifetime.end.p0(i64 8, ptr %7) #16
  ret void
}