; Function Attrs: mustprogress uwtable
define void @_ZN12ImGuiStorage10SetVoidPtrEjPv(ptr noundef nonnull align 8 dereferenceable(16) %0, i32 noundef %1, ptr noundef %2) local_unnamed_addr #0 align 2 {
  %4 = alloca %struct.ImGuiStoragePair, align 8
  %5 = getelementptr inbounds nuw i8, ptr %0, i64 8
  %6 = load ptr, ptr %5, align 8, !tbaa !281
  %7 = load i32, ptr %0, align 8, !tbaa !280
  %8 = sext i32 %7 to i64
  %9 = getelementptr inbounds %struct.ImGuiStoragePair, ptr %6, i64 %8
  %.not15.i = icmp eq i32 %7, 0
  br i1 %.not15.i, label %_Z12ImLowerBoundP16ImGuiStoragePairS0_j.exit, label %.lr.ph.i

.lr.ph.i:                                         ; preds = %3, %.lr.ph.i
  %.017.i = phi ptr [ %.1.i, %.lr.ph.i ], [ %6, %3 ]
  %.01316.i = phi i64 [ %.114.i, %.lr.ph.i ], [ %8, %3 ]
  %10 = lshr i64 %.01316.i, 1
  %11 = getelementptr inbounds nuw %struct.ImGuiStoragePair, ptr %.017.i, i64 %10
  %12 = load i32, ptr %11, align 8, !tbaa !277
  %13 = icmp ult i32 %12, %1
  %14 = getelementptr inbounds nuw i8, ptr %11, i64 16
  %.neg.i = xor i64 %10, -1
  %15 = add i64 %.01316.i, %.neg.i
  %.114.i = select i1 %13, i64 %15, i64 %10
  %.1.i = select i1 %13, ptr %14, ptr %.017.i
  %.not.i = icmp eq i64 %.114.i, 0
  br i1 %.not.i, label %_Z12ImLowerBoundP16ImGuiStoragePairS0_j.exit, label %.lr.ph.i, !llvm.loop !279

_Z12ImLowerBoundP16ImGuiStoragePairS0_j.exit:     ; preds = %.lr.ph.i, %3
  %.0.lcssa.i = phi ptr [ %6, %3 ], [ %.1.i, %.lr.ph.i ]
  %16 = icmp eq ptr %.0.lcssa.i, %9
  br i1 %16, label %19, label %17

17:                                               ; preds = %_Z12ImLowerBoundP16ImGuiStoragePairS0_j.exit
  %18 = load i32, ptr %.0.lcssa.i, align 8, !tbaa !277
  %.not = icmp eq i32 %18, %1
  br i1 %.not, label %22, label %19

19:                                               ; preds = %17, %_Z12ImLowerBoundP16ImGuiStoragePairS0_j.exit
  call void @llvm.lifetime.start.p0(i64 16, ptr nonnull %4) #44
  store i32 %1, ptr %4, align 8, !tbaa !277
  %20 = getelementptr inbounds nuw i8, ptr %4, i64 8
  store ptr %2, ptr %20, align 8, !tbaa !211
  %21 = call noundef ptr @_ZN8ImVectorI16ImGuiStoragePairE6insertEPKS0_RS2_(ptr noundef nonnull align 8 dereferenceable(16) %0, ptr noundef %.0.lcssa.i, ptr noundef nonnull align 8 dereferenceable(16) %4)
  call void @llvm.lifetime.end.p0(i64 16, ptr nonnull %4) #44
  br label %24

22:                                               ; preds = %17
  %23 = getelementptr inbounds nuw i8, ptr %.0.lcssa.i, i64 8
  store ptr %2, ptr %23, align 8, !tbaa !211
  br label %24

24:                                               ; preds = %22, %19
  ret void
}